target datalayout = "e-m:e-p270:32:32-p271:32:32-p272:64:64-i64:64-i128:128-f80:128-n8:16:32:64-S128"
target triple = "x86_64-pc-linux-gnu"

%class.HashtableTextDump = type { i32, ptr, ptr, ptr, ptr, i64, i32, i32 }

@.str.18 = private unnamed_addr constant [39 x i8] c"%s. Corrupted at line %d (file pos %d)\00", align 1
@.str.19 = private unnamed_addr constant [21 x i8] c"Unexpected character\00", align 1
@.str.20 = private unnamed_addr constant [10 x i8] c"Truncated\00", align 1
@g_assert_poison = external global ptr, align 8
@.str.28 = private unnamed_addr constant [49 x i8] c"src/hotspot/share/classfile/compactHashtable.cpp\00", align 1
@.str.29 = private unnamed_addr constant [22 x i8] c"Unsupported character\00", align 1

; Function Attrs: mustprogress nounwind uwtable
define hidden void @_ZN17HashtableTextDump4quitEPKcS1_(ptr noundef nonnull align 8 dereferenceable(56) %0, ptr noundef %1, ptr noundef %2) #1 align 2 {
  %4 = alloca ptr, align 8
  %5 = alloca ptr, align 8
  %6 = alloca ptr, align 8
  store ptr %0, ptr %4, align 8
  store ptr %1, ptr %5, align 8
  store ptr %2, ptr %6, align 8
  %7 = load ptr, ptr %5, align 8
  %8 = load ptr, ptr %6, align 8
  call void @_Z29vm_exit_during_initializationPKcS0_(ptr noundef %7, ptr noundef %8)
  ret void
}

; Function Attrs: mustprogress nounwind uwtable
define hidden noundef zeroext i1 @_ZN17HashtableTextDump12skip_newlineEv(ptr noundef nonnull align 8 dereferenceable(56) %0) #1 align 2 {
  %2 = alloca ptr, align 8
  store ptr %0, ptr %2, align 8
  %3 = load ptr, ptr %2, align 8
  %4 = getelementptr inbounds %class.HashtableTextDump, ptr %3, i32 0, i32 2
  %5 = load ptr, ptr %4, align 8
  %6 = getelementptr inbounds i8, ptr %5, i64 0
  %7 = load i8, ptr %6, align 1
  %8 = sext i8 %7 to i32
  %9 = icmp eq i32 %8, 13
  br i1 %9, label %10, label %21

10:                                               ; preds = %1
  %11 = getelementptr inbounds %class.HashtableTextDump, ptr %3, i32 0, i32 2
  %12 = load ptr, ptr %11, align 8
  %13 = getelementptr inbounds i8, ptr %12, i64 1
  %14 = load i8, ptr %13, align 1
  %15 = sext i8 %14 to i32
  %16 = icmp eq i32 %15, 10
  br i1 %16, label %17, label %21

17:                                               ; preds = %10
  %18 = getelementptr inbounds %class.HashtableTextDump, ptr %3, i32 0, i32 2
  %19 = load ptr, ptr %18, align 8
  %20 = getelementptr inbounds i8, ptr %19, i64 2
  store ptr %20, ptr %18, align 8
  br label %36

21:                                               ; preds = %10, %1
  %22 = getelementptr inbounds %class.HashtableTextDump, ptr %3, i32 0, i32 2
  %23 = load ptr, ptr %22, align 8
  %24 = getelementptr inbounds i8, ptr %23, i64 0
  %25 = load i8, ptr %24, align 1
  %26 = sext i8 %25 to i32
  %27 = icmp eq i32 %26, 10
  br i1 %27, label %28, label %32

28:                                               ; preds = %21
  %29 = getelementptr inbounds %class.HashtableTextDump, ptr %3, i32 0, i32 2
  %30 = load ptr, ptr %29, align 8
  %31 = getelementptr inbounds i8, ptr %30, i64 1
  store ptr %31, ptr %29, align 8
  br label %35

32:                                               ; preds = %21
  %33 = getelementptr inbounds %class.HashtableTextDump, ptr %3, i32 0, i32 2
  %34 = load ptr, ptr %33, align 8
  call void @_ZN17HashtableTextDump9corruptedEPKcS1_(ptr noundef nonnull align 8 dereferenceable(56) %3, ptr noundef %34, ptr noundef @.str.19)
  br label %35

35:                                               ; preds = %32, %28
  br label %36

36:                                               ; preds = %35, %17
  %37 = getelementptr inbounds %class.HashtableTextDump, ptr %3, i32 0, i32 7
  %38 = load i32, ptr %37, align 4
  %39 = add nsw i32 %38, 1
  store i32 %39, ptr %37, align 4
  ret i1 true
}

; Function Attrs: mustprogress nounwind uwtable
define hidden void @_ZN17HashtableTextDump9corruptedEPKcS1_(ptr noundef nonnull align 8 dereferenceable(56) %0, ptr noundef %1, ptr noundef %2) #1 align 2 {
  %4 = alloca ptr, align 8
  %5 = alloca ptr, align 8
  %6 = alloca ptr, align 8
  %7 = alloca [100 x i8], align 16
  store ptr %0, ptr %4, align 8
  store ptr %1, ptr %5, align 8
  store ptr %2, ptr %6, align 8
  %8 = load ptr, ptr %4, align 8
  %9 = getelementptr inbounds [100 x i8], ptr %7, i64 0, i64 0
  %10 = load ptr, ptr %6, align 8
  %11 = getelementptr inbounds %class.HashtableTextDump, ptr %8, i32 0, i32 7
  %12 = load i32, ptr %11, align 4
  %13 = load ptr, ptr %5, align 8
  %14 = getelementptr inbounds %class.HashtableTextDump, ptr %8, i32 0, i32 1
  %15 = load ptr, ptr %14, align 8
  %16 = ptrtoint ptr %13 to i64
  %17 = ptrtoint ptr %15 to i64
  %18 = sub i64 %16, %17
  %19 = trunc i64 %18 to i32
  %20 = call i32 (ptr, i64, ptr, ...) @jio_snprintf(ptr noundef %9, i64 noundef 100, ptr noundef @.str.18, ptr noundef %10, i32 noundef %12, i32 noundef %19)
  %21 = getelementptr inbounds [100 x i8], ptr %7, i64 0, i64 0
  %22 = getelementptr inbounds %class.HashtableTextDump, ptr %8, i32 0, i32 4
  %23 = load ptr, ptr %22, align 8
  call void @_ZN17HashtableTextDump4quitEPKcS1_(ptr noundef nonnull align 8 dereferenceable(56) %8, ptr noundef %21, ptr noundef %23)
  ret void
}

; Function Attrs: mustprogress nounwind uwtable
define hidden noundef i32 @_ZN17HashtableTextDump8unescapeEPKcS1_i(ptr noundef nonnull align 8 dereferenceable(56) %0, ptr noundef %1, ptr noundef %2, i32 noundef %3) #1 align 2 {
  %5 = alloca ptr, align 8
  %6 = alloca ptr, align 8
  %7 = alloca ptr, align 8
  %8 = alloca i32, align 4
  %9 = alloca i32, align 4
  %10 = alloca i32, align 4
  %11 = alloca i8, align 1
  store ptr %0, ptr %5, align 8
  store ptr %1, ptr %6, align 8
  store ptr %2, ptr %7, align 8
  store i32 %3, ptr %8, align 4
  %12 = load ptr, ptr %5, align 8
  store i32 0, ptr %9, align 4
  %13 = load ptr, ptr %6, align 8
  %14 = load i32, ptr %8, align 4
  %15 = sext i32 %14 to i64
  %16 = getelementptr inbounds i8, ptr %13, i64 %15
  %17 = load ptr, ptr %7, align 8
  %18 = icmp ugt ptr %16, %17
  call void @_ZN17HashtableTextDump12corrupted_ifEbPKc(ptr noundef nonnull align 8 dereferenceable(56) %12, i1 noundef zeroext %18, ptr noundef @.str.20)
  store i32 0, ptr %10, align 4
  br label %19

19:                                               ; preds = %57, %4
  %20 = load i32, ptr %10, align 4
  %21 = load i32, ptr %8, align 4
  %22 = icmp slt i32 %20, %21
  br i1 %22, label %23, label %60

23:                                               ; preds = %19
  %24 = load ptr, ptr %6, align 8
  %25 = getelementptr inbounds i8, ptr %24, i32 1
  store ptr %25, ptr %6, align 8
  %26 = load i8, ptr %24, align 1
  store i8 %26, ptr %11, align 1
  %27 = load i8, ptr %11, align 1
  %28 = sext i8 %27 to i32
  switch i32 %28, label %52 [
    i32 48, label %29
    i32 49, label %29
    i32 50, label %29
    i32 51, label %29
    i32 52, label %29
    i32 53, label %29
    i32 54, label %29
    i32 55, label %29
    i32 56, label %29
    i32 57, label %29
    i32 97, label %36
    i32 98, label %36
    i32 99, label %36
    i32 100, label %36
    i32 101, label %36
    i32 102, label %36
    i32 65, label %44
    i32 66, label %44
    i32 67, label %44
    i32 68, label %44
    i32 69, label %44
    i32 70, label %44
  ]

29:                                               ; preds = %23, %23, %23, %23, %23, %23, %23, %23, %23, %23
  %30 = load i32, ptr %9, align 4
  %31 = shl i32 %30, 4
  %32 = load i8, ptr %11, align 1
  %33 = sext i8 %32 to i32
  %34 = add nsw i32 %31, %33
  %35 = sub nsw i32 %34, 48
  store i32 %35, ptr %9, align 4
  br label %56

36:                                               ; preds = %23, %23, %23, %23, %23, %23
  %37 = load i32, ptr %9, align 4
  %38 = shl i32 %37, 4
  %39 = add nsw i32 %38, 10
  %40 = load i8, ptr %11, align 1
  %41 = sext i8 %40 to i32
  %42 = add nsw i32 %39, %41
  %43 = sub nsw i32 %42, 97
  store i32 %43, ptr %9, align 4
  br label %56

44:                                               ; preds = %23, %23, %23, %23, %23, %23
  %45 = load i32, ptr %9, align 4
  %46 = shl i32 %45, 4
  %47 = add nsw i32 %46, 10
  %48 = load i8, ptr %11, align 1
  %49 = sext i8 %48 to i32
  %50 = add nsw i32 %47, %49
  %51 = sub nsw i32 %50, 65
  store i32 %51, ptr %9, align 4
  br label %56

52:                                               ; preds = %23
  br label %53

53:                                               ; preds = %52
  %54 = load ptr, ptr @g_assert_poison, align 8
  store i8 88, ptr %54, align 1
  call void @_Z28report_should_not_reach_herePKci(ptr noundef @.str.28, i32 noundef 390) #10
  unreachable

55:                                               ; No predecessors!
  br label %56

56:                                               ; preds = %55, %44, %36, %29
  br label %57

57:                                               ; preds = %56
  %58 = load i32, ptr %10, align 4
  %59 = add nsw i32 %58, 1
  store i32 %59, ptr %10, align 4
  br label %19, !llvm.loop !14

60:                                               ; preds = %19
  %61 = load i32, ptr %9, align 4
  ret i32 %61
}

; Function Attrs: mustprogress nounwind uwtable
define linkonce_odr hidden void @_ZN17HashtableTextDump12corrupted_ifEbPKc(ptr noundef nonnull align 8 dereferenceable(56) %0, i1 noundef zeroext %1, ptr noundef %2) #1 comdat align 2 {
  %4 = alloca ptr, align 8
  %5 = alloca i8, align 1
  %6 = alloca ptr, align 8
  store ptr %0, ptr %4, align 8
  %7 = zext i1 %1 to i8
  store i8 %7, ptr %5, align 1
  store ptr %2, ptr %6, align 8
  %8 = load ptr, ptr %4, align 8
  %9 = load i8, ptr %5, align 1
  %10 = trunc i8 %9 to i1
  br i1 %10, label %11, label %15

11:                                               ; preds = %3
  %12 = getelementptr inbounds %class.HashtableTextDump, ptr %8, i32 0, i32 2
  %13 = load ptr, ptr %12, align 8
  %14 = load ptr, ptr %6, align 8
  call void @_ZN17HashtableTextDump9corruptedEPKcS1_(ptr noundef nonnull align 8 dereferenceable(56) %8, ptr noundef %13, ptr noundef %14)
  br label %15

15:                                               ; preds = %11, %3
  ret void
}

; Function Attrs: mustprogress nounwind uwtable
define hidden void @_ZN17HashtableTextDump8get_utf8EPci(ptr noundef nonnull align 8 dereferenceable(56) %0, ptr noundef %1, i32 noundef %2) #1 align 2 {
  %4 = alloca ptr, align 8
  %5 = alloca ptr, align 8
  %6 = alloca i32, align 4
  %7 = alloca ptr, align 8
  %8 = alloca ptr, align 8
  %9 = alloca ptr, align 8
  %10 = alloca i32, align 4
  %11 = alloca i8, align 1
  %12 = alloca i32, align 4
  store ptr %0, ptr %4, align 8
  store ptr %1, ptr %5, align 8
  store i32 %2, ptr %6, align 4
  %13 = load ptr, ptr %4, align 8
  %14 = getelementptr inbounds %class.HashtableTextDump, ptr %13, i32 0, i32 2
  %15 = load ptr, ptr %14, align 8
  store ptr %15, ptr %7, align 8
  %16 = getelementptr inbounds %class.HashtableTextDump, ptr %13, i32 0, i32 3
  %17 = load ptr, ptr %16, align 8
  store ptr %17, ptr %8, align 8
  %18 = load ptr, ptr %5, align 8
  store ptr %18, ptr %9, align 8
  %19 = load i32, ptr %6, align 4
  store i32 %19, ptr %10, align 4
  br label %20

20:                                               ; preds = %80, %3
  %21 = load i32, ptr %10, align 4
  %22 = icmp sgt i32 %21, 0
  br i1 %22, label %23, label %27

23:                                               ; preds = %20
  %24 = load ptr, ptr %7, align 8
  %25 = load ptr, ptr %8, align 8
  %26 = icmp ult ptr %24, %25
  br label %27

27:                                               ; preds = %23, %20
  %28 = phi i1 [ false, %20 ], [ %26, %23 ]
  br i1 %28, label %29, label %83

29:                                               ; preds = %27
  %30 = load ptr, ptr %7, align 8
  %31 = load i8, ptr %30, align 1
  %32 = sext i8 %31 to i32
  %33 = icmp ne i32 %32, 92
  br i1 %33, label %34, label %40

34:                                               ; preds = %29
  %35 = load ptr, ptr %7, align 8
  %36 = getelementptr inbounds i8, ptr %35, i32 1
  store ptr %36, ptr %7, align 8
  %37 = load i8, ptr %35, align 1
  %38 = load ptr, ptr %9, align 8
  %39 = getelementptr inbounds i8, ptr %38, i32 1
  store ptr %39, ptr %9, align 8
  store i8 %37, ptr %38, align 1
  br label %79

40:                                               ; preds = %29
  %41 = load ptr, ptr %7, align 8
  %42 = getelementptr inbounds i8, ptr %41, i64 2
  %43 = load ptr, ptr %8, align 8
  %44 = icmp ugt ptr %42, %43
  call void @_ZN17HashtableTextDump12corrupted_ifEbPKc(ptr noundef nonnull align 8 dereferenceable(56) %13, i1 noundef zeroext %44, ptr noundef @.str.20)
  %45 = load ptr, ptr %7, align 8
  %46 = getelementptr inbounds i8, ptr %45, i64 1
  %47 = load i8, ptr %46, align 1
  store i8 %47, ptr %11, align 1
  %48 = load ptr, ptr %7, align 8
  %49 = getelementptr inbounds i8, ptr %48, i64 2
  store ptr %49, ptr %7, align 8
  %50 = load i8, ptr %11, align 1
  %51 = sext i8 %50 to i32
  switch i32 %51, label %75 [
    i32 120, label %52
    i32 116, label %63
    i32 110, label %66
    i32 114, label %69
    i32 92, label %72
  ]

52:                                               ; preds = %40
  %53 = load ptr, ptr %7, align 8
  %54 = load ptr, ptr %8, align 8
  %55 = call noundef i32 @_ZN17HashtableTextDump8unescapeEPKcS1_i(ptr noundef nonnull align 8 dereferenceable(56) %13, ptr noundef %53, ptr noundef %54, i32 noundef 2)
  store i32 %55, ptr %12, align 4
  %56 = load ptr, ptr %7, align 8
  %57 = getelementptr inbounds i8, ptr %56, i64 2
  store ptr %57, ptr %7, align 8
  %58 = load i32, ptr %12, align 4
  %59 = and i32 %58, 255
  %60 = trunc i32 %59 to i8
  %61 = load ptr, ptr %9, align 8
  %62 = getelementptr inbounds i8, ptr %61, i32 1
  store ptr %62, ptr %9, align 8
  store i8 %60, ptr %61, align 1
  br label %78

63:                                               ; preds = %40
  %64 = load ptr, ptr %9, align 8
  %65 = getelementptr inbounds i8, ptr %64, i32 1
  store ptr %65, ptr %9, align 8
  store i8 9, ptr %64, align 1
  br label %78

66:                                               ; preds = %40
  %67 = load ptr, ptr %9, align 8
  %68 = getelementptr inbounds i8, ptr %67, i32 1
  store ptr %68, ptr %9, align 8
  store i8 10, ptr %67, align 1
  br label %78

69:                                               ; preds = %40
  %70 = load ptr, ptr %9, align 8
  %71 = getelementptr inbounds i8, ptr %70, i32 1
  store ptr %71, ptr %9, align 8
  store i8 13, ptr %70, align 1
  br label %78

72:                                               ; preds = %40
  %73 = load ptr, ptr %9, align 8
  %74 = getelementptr inbounds i8, ptr %73, i32 1
  store ptr %74, ptr %9, align 8
  store i8 92, ptr %73, align 1
  br label %78

75:                                               ; preds = %40
  %76 = getelementptr inbounds %class.HashtableTextDump, ptr %13, i32 0, i32 2
  %77 = load ptr, ptr %76, align 8
  call void @_ZN17HashtableTextDump9corruptedEPKcS1_(ptr noundef nonnull align 8 dereferenceable(56) %13, ptr noundef %77, ptr noundef @.str.29)
  br label %78

78:                                               ; preds = %75, %72, %69, %66, %63, %52
  br label %79

79:                                               ; preds = %78, %34
  br label %80

80:                                               ; preds = %79
  %81 = load i32, ptr %10, align 4
  %82 = add nsw i32 %81, -1
  store i32 %82, ptr %10, align 4
  br label %20, !llvm.loop !15

83:                                               ; preds = %27
  %84 = load i32, ptr %10, align 4
  %85 = icmp sgt i32 %84, 0
  call void @_ZN17HashtableTextDump12corrupted_ifEbPKc(ptr noundef nonnull align 8 dereferenceable(56) %13, i1 noundef zeroext %85, ptr noundef @.str.20)
  %86 = load ptr, ptr %7, align 8
  %87 = getelementptr inbounds %class.HashtableTextDump, ptr %13, i32 0, i32 2
  store ptr %86, ptr %87, align 8
  %88 = call noundef zeroext i1 @_ZN17HashtableTextDump12skip_newlineEv(ptr noundef nonnull align 8 dereferenceable(56) %13)
  ret void
}