; Function Attrs: mustprogress nounwind uwtable
define hidden void @_ZN17HashtableTextDump8get_utf8EPci(ptr nocapture noundef nonnull align 8 dereferenceable(56) %0, ptr nocapture noundef writeonly %1, i32 noundef %2) local_unnamed_addr #0 align 2 {
  %4 = alloca [100 x i8], align 16
  %5 = alloca [100 x i8], align 16
  %6 = alloca [100 x i8], align 16
  %7 = alloca [100 x i8], align 16
  %8 = alloca [100 x i8], align 16
  %9 = getelementptr inbounds i8, ptr %0, i64 16
  %10 = load ptr, ptr %9, align 8
  %11 = getelementptr inbounds i8, ptr %0, i64 24
  %12 = load ptr, ptr %11, align 8
  %13 = icmp sgt i32 %2, 0
  %14 = icmp ult ptr %10, %12
  %15 = select i1 %13, i1 %14, i1 false
  br i1 %15, label %.lr.ph, label %._crit_edge

.lr.ph:                                           ; preds = %3
  %16 = getelementptr inbounds i8, ptr %0, i64 52
  %17 = getelementptr inbounds i8, ptr %0, i64 8
  %18 = getelementptr inbounds i8, ptr %0, i64 32
  br label %19

19:                                               ; preds = %.lr.ph, %80
  %.034 = phi ptr [ %10, %.lr.ph ], [ %.1, %80 ]
  %.02533 = phi ptr [ %1, %.lr.ph ], [ %.126, %80 ]
  %.02732 = phi i32 [ %2, %.lr.ph ], [ %81, %80 ]
  %20 = load i8, ptr %.034, align 1
  %.not = icmp eq i8 %20, 92
  br i1 %.not, label %24, label %21

21:                                               ; preds = %19
  %22 = getelementptr inbounds i8, ptr %.034, i64 1
  %23 = getelementptr inbounds i8, ptr %.02533, i64 1
  store i8 %20, ptr %.02533, align 1
  br label %80

24:                                               ; preds = %19
  %25 = getelementptr inbounds i8, ptr %.034, i64 2
  %26 = icmp ugt ptr %25, %12
  br i1 %26, label %27, label %_ZN17HashtableTextDump12corrupted_ifEbPKc.exit

27:                                               ; preds = %24
  %28 = load ptr, ptr %9, align 8
  call void @llvm.lifetime.start.p0(i64 100, ptr nonnull %8)
  %29 = load i32, ptr %16, align 4
  %30 = load ptr, ptr %17, align 8
  %31 = ptrtoint ptr %28 to i64
  %32 = ptrtoint ptr %30 to i64
  %33 = sub i64 %31, %32
  %34 = trunc i64 %33 to i32
  %35 = call i32 (ptr, i64, ptr, ...) @jio_snprintf(ptr noundef nonnull %8, i64 noundef 100, ptr noundef nonnull @.str.18, ptr noundef nonnull @.str.20, i32 noundef %29, i32 noundef %34) #14
  %36 = load ptr, ptr %18, align 8
  call void @_Z29vm_exit_during_initializationPKcS0_(ptr noundef nonnull %8, ptr noundef %36) #14
  call void @llvm.lifetime.end.p0(i64 100, ptr nonnull %8)
  br label %_ZN17HashtableTextDump12corrupted_ifEbPKc.exit

_ZN17HashtableTextDump12corrupted_ifEbPKc.exit:   ; preds = %24, %27
  %37 = getelementptr inbounds i8, ptr %.034, i64 1
  %38 = load i8, ptr %37, align 1
  switch i8 %38, label %70 [
    i8 120, label %39
    i8 116, label %62
    i8 110, label %64
    i8 114, label %66
    i8 92, label %68
  ]

39:                                               ; preds = %_ZN17HashtableTextDump12corrupted_ifEbPKc.exit
  %40 = getelementptr inbounds i8, ptr %.034, i64 4
  %41 = icmp ugt ptr %40, %12
  br i1 %41, label %42, label %.lr.ph.i.preheader

42:                                               ; preds = %39
  %43 = load ptr, ptr %9, align 8
  call void @llvm.lifetime.start.p0(i64 100, ptr nonnull %7)
  %44 = load i32, ptr %16, align 4
  %45 = load ptr, ptr %17, align 8
  %46 = ptrtoint ptr %43 to i64
  %47 = ptrtoint ptr %45 to i64
  %48 = sub i64 %46, %47
  %49 = trunc i64 %48 to i32
  %50 = call i32 (ptr, i64, ptr, ...) @jio_snprintf(ptr noundef nonnull %7, i64 noundef 100, ptr noundef nonnull @.str.18, ptr noundef nonnull @.str.20, i32 noundef %44, i32 noundef %49) #14
  %51 = load ptr, ptr %18, align 8
  call void @_Z29vm_exit_during_initializationPKcS0_(ptr noundef nonnull %7, ptr noundef %51) #14
  call void @llvm.lifetime.end.p0(i64 100, ptr nonnull %7)
  br label %.lr.ph.i.preheader

.lr.ph.i.preheader:                               ; preds = %42, %39
  br label %.lr.ph.i

.lr.ph.i:                                         ; preds = %.lr.ph.i.preheader, %switch.lookup
  %.020.i = phi ptr [ %52, %switch.lookup ], [ %25, %.lr.ph.i.preheader ]
  %.01519.i = phi i32 [ %60, %switch.lookup ], [ 0, %.lr.ph.i.preheader ]
  %.01618.i = phi i8 [ %.1.i, %switch.lookup ], [ 0, %.lr.ph.i.preheader ]
  %52 = getelementptr inbounds i8, ptr %.020.i, i64 1
  %53 = load i8, ptr %.020.i, align 1
  %switch.tableidx = add i8 %53, -48
  %54 = icmp ult i8 %switch.tableidx, 55
  br i1 %54, label %switch.hole_check, label %55

55:                                               ; preds = %switch.hole_check, %.lr.ph.i
  %56 = load ptr, ptr @g_assert_poison, align 8
  store i8 88, ptr %56, align 1
  call void @_Z28report_should_not_reach_herePKci(ptr noundef nonnull @.str.28, i32 noundef 390) #16
  unreachable

switch.hole_check:                                ; preds = %.lr.ph.i
  %switch.maskindex = zext nneg i8 %switch.tableidx to i64
  %switch.shifted = lshr i64 35465847073801215, %switch.maskindex
  %switch.lobit = trunc i64 %switch.shifted to i1
  br i1 %switch.lobit, label %switch.lookup, label %55

switch.lookup:                                    ; preds = %switch.hole_check
  %57 = zext nneg i8 %switch.tableidx to i64
  %switch.gep = getelementptr inbounds [55 x i8], ptr @switch.table._ZN17HashtableTextDump8get_utf8EPci, i64 0, i64 %57
  %switch.load = load i8, ptr %switch.gep, align 1
  %58 = shl i8 %.01618.i, 4
  %59 = add i8 %53, %58
  %.1.i = add i8 %59, %switch.load
  %60 = add nuw nsw i32 %.01519.i, 1
  %exitcond.not.i = icmp eq i32 %60, 2
  br i1 %exitcond.not.i, label %_ZN17HashtableTextDump8unescapeEPKcS1_i.exit, label %.lr.ph.i, !llvm.loop !15

_ZN17HashtableTextDump8unescapeEPKcS1_i.exit:     ; preds = %switch.lookup
  %61 = getelementptr inbounds i8, ptr %.02533, i64 1
  store i8 %.1.i, ptr %.02533, align 1
  br label %80

62:                                               ; preds = %_ZN17HashtableTextDump12corrupted_ifEbPKc.exit
  %63 = getelementptr inbounds i8, ptr %.02533, i64 1
  store i8 9, ptr %.02533, align 1
  br label %80

64:                                               ; preds = %_ZN17HashtableTextDump12corrupted_ifEbPKc.exit
  %65 = getelementptr inbounds i8, ptr %.02533, i64 1
  store i8 10, ptr %.02533, align 1
  br label %80

66:                                               ; preds = %_ZN17HashtableTextDump12corrupted_ifEbPKc.exit
  %67 = getelementptr inbounds i8, ptr %.02533, i64 1
  store i8 13, ptr %.02533, align 1
  br label %80

68:                                               ; preds = %_ZN17HashtableTextDump12corrupted_ifEbPKc.exit
  %69 = getelementptr inbounds i8, ptr %.02533, i64 1
  store i8 92, ptr %.02533, align 1
  br label %80

70:                                               ; preds = %_ZN17HashtableTextDump12corrupted_ifEbPKc.exit
  %71 = load ptr, ptr %9, align 8
  call void @llvm.lifetime.start.p0(i64 100, ptr nonnull %6)
  %72 = load i32, ptr %16, align 4
  %73 = load ptr, ptr %17, align 8
  %74 = ptrtoint ptr %71 to i64
  %75 = ptrtoint ptr %73 to i64
  %76 = sub i64 %74, %75
  %77 = trunc i64 %76 to i32
  %78 = call i32 (ptr, i64, ptr, ...) @jio_snprintf(ptr noundef nonnull %6, i64 noundef 100, ptr noundef nonnull @.str.18, ptr noundef nonnull @.str.29, i32 noundef %72, i32 noundef %77) #14
  %79 = load ptr, ptr %18, align 8
  call void @_Z29vm_exit_during_initializationPKcS0_(ptr noundef nonnull %6, ptr noundef %79) #14
  call void @llvm.lifetime.end.p0(i64 100, ptr nonnull %6)
  br label %80

80:                                               ; preds = %21, %70, %68, %66, %64, %62, %_ZN17HashtableTextDump8unescapeEPKcS1_i.exit
  %.126 = phi ptr [ %23, %21 ], [ %.02533, %70 ], [ %69, %68 ], [ %67, %66 ], [ %65, %64 ], [ %63, %62 ], [ %61, %_ZN17HashtableTextDump8unescapeEPKcS1_i.exit ]
  %.1 = phi ptr [ %22, %21 ], [ %25, %70 ], [ %25, %68 ], [ %25, %66 ], [ %25, %64 ], [ %25, %62 ], [ %40, %_ZN17HashtableTextDump8unescapeEPKcS1_i.exit ]
  %81 = add nsw i32 %.02732, -1
  %82 = icmp sgt i32 %.02732, 1
  %83 = icmp ult ptr %.1, %12
  %84 = select i1 %82, i1 %83, i1 false
  br i1 %84, label %19, label %._crit_edge, !llvm.loop !16

._crit_edge:                                      ; preds = %80, %3
  %.0.lcssa = phi ptr [ %10, %3 ], [ %.1, %80 ]
  %.lcssa = phi i1 [ %13, %3 ], [ %82, %80 ]
  br i1 %.lcssa, label %85, label %_ZN17HashtableTextDump12corrupted_ifEbPKc.exit29

85:                                               ; preds = %._crit_edge
  %86 = load ptr, ptr %9, align 8
  call void @llvm.lifetime.start.p0(i64 100, ptr nonnull %5)
  %87 = getelementptr inbounds i8, ptr %0, i64 52
  %88 = load i32, ptr %87, align 4
  %89 = getelementptr inbounds i8, ptr %0, i64 8
  %90 = load ptr, ptr %89, align 8
  %91 = ptrtoint ptr %86 to i64
  %92 = ptrtoint ptr %90 to i64
  %93 = sub i64 %91, %92
  %94 = trunc i64 %93 to i32
  %95 = call i32 (ptr, i64, ptr, ...) @jio_snprintf(ptr noundef nonnull %5, i64 noundef 100, ptr noundef nonnull @.str.18, ptr noundef nonnull @.str.20, i32 noundef %88, i32 noundef %94) #14
  %96 = getelementptr inbounds i8, ptr %0, i64 32
  %97 = load ptr, ptr %96, align 8
  call void @_Z29vm_exit_during_initializationPKcS0_(ptr noundef nonnull %5, ptr noundef %97) #14
  call void @llvm.lifetime.end.p0(i64 100, ptr nonnull %5)
  br label %_ZN17HashtableTextDump12corrupted_ifEbPKc.exit29

_ZN17HashtableTextDump12corrupted_ifEbPKc.exit29: ; preds = %._crit_edge, %85
  store ptr %.0.lcssa, ptr %9, align 8
  %98 = load i8, ptr %.0.lcssa, align 1
  switch i8 %98, label %.thread.i [
    i8 13, label %99
    i8 10, label %105
  ]

99:                                               ; preds = %_ZN17HashtableTextDump12corrupted_ifEbPKc.exit29
  %100 = getelementptr inbounds i8, ptr %.0.lcssa, i64 1
  %101 = load i8, ptr %100, align 1
  %102 = icmp eq i8 %101, 10
  br i1 %102, label %103, label %.thread.i

103:                                              ; preds = %99
  %104 = getelementptr inbounds i8, ptr %.0.lcssa, i64 2
  store ptr %104, ptr %9, align 8
  br label %_ZN17HashtableTextDump12skip_newlineEv.exit

105:                                              ; preds = %_ZN17HashtableTextDump12corrupted_ifEbPKc.exit29
  %106 = getelementptr inbounds i8, ptr %.0.lcssa, i64 1
  store ptr %106, ptr %9, align 8
  br label %_ZN17HashtableTextDump12skip_newlineEv.exit

.thread.i:                                        ; preds = %99, %_ZN17HashtableTextDump12corrupted_ifEbPKc.exit29
  call void @llvm.lifetime.start.p0(i64 100, ptr nonnull %4)
  %107 = getelementptr inbounds i8, ptr %0, i64 52
  %108 = load i32, ptr %107, align 4
  %109 = getelementptr inbounds i8, ptr %0, i64 8
  %110 = load ptr, ptr %109, align 8
  %111 = ptrtoint ptr %.0.lcssa to i64
  %112 = ptrtoint ptr %110 to i64
  %113 = sub i64 %111, %112
  %114 = trunc i64 %113 to i32
  %115 = call i32 (ptr, i64, ptr, ...) @jio_snprintf(ptr noundef nonnull %4, i64 noundef 100, ptr noundef nonnull @.str.18, ptr noundef nonnull @.str.19, i32 noundef %108, i32 noundef %114) #14
  %116 = getelementptr inbounds i8, ptr %0, i64 32
  %117 = load ptr, ptr %116, align 8
  call void @_Z29vm_exit_during_initializationPKcS0_(ptr noundef nonnull %4, ptr noundef %117) #14
  call void @llvm.lifetime.end.p0(i64 100, ptr nonnull %4)
  br label %_ZN17HashtableTextDump12skip_newlineEv.exit

_ZN17HashtableTextDump12skip_newlineEv.exit:      ; preds = %103, %105, %.thread.i
  %118 = getelementptr inbounds i8, ptr %0, i64 52
  %119 = load i32, ptr %118, align 4
  %120 = add nsw i32 %119, 1
  store i32 %120, ptr %118, align 4
  ret void
}